
led_on_c_elf:     file format elf32-littlearm

Disassembly of section .text:

00000000 <_start>:
   0:	e3a00453 	mov	r0, #1392508928	; 0x53000000
   4:	e3a01000 	mov	r1, #0	; 0x0
   8:	e5801000 	str	r1, [r0]
   c:	e3a0da01 	mov	sp, #4096	; 0x1000
  10:	eb000000 	bl	18 <main>

00000014 <halt_loop>:
  14:	eafffffe 	b	14 <halt_loop>

00000018 <main>:
  18:	e1a0c00d 	mov	ip, sp
  1c:	e92dd800 	stmdb	sp!, {fp, ip, lr, pc}
  20:	e24cb004 	sub	fp, ip, #4	; 0x4
  24:	e24dd004 	sub	sp, sp, #4	; 0x4
  28:	e3a02456 	mov	r2, #1442840576	; 0x56000000
  2c:	e2822050 	add	r2, r2, #80	; 0x50
  30:	e3a03456 	mov	r3, #1442840576	; 0x56000000
  34:	e2833050 	add	r3, r3, #80	; 0x50
  38:	e5933000 	ldr	r3, [r3]
  3c:	e3833d55 	orr	r3, r3, #5440	; 0x1540
  40:	e5823000 	str	r3, [r2]
  44:	e3a03000 	mov	r3, #0	; 0x0
  48:	e50b3010 	str	r3, [fp, #-16]
  4c:	e3a02456 	mov	r2, #1442840576	; 0x56000000
  50:	e2822054 	add	r2, r2, #84	; 0x54
  54:	e3a03456 	mov	r3, #1442840576	; 0x56000000
  58:	e28330f7 	add	r3, r3, #247	; 0xf7
  5c:	e5823000 	str	r3, [r2]
  60:	e3a02456 	mov	r2, #1442840576	; 0x56000000
  64:	e2822054 	add	r2, r2, #84	; 0x54
  68:	e3a03456 	mov	r3, #1442840576	; 0x56000000
  6c:	e2833054 	add	r3, r3, #84	; 0x54
  70:	e5933000 	ldr	r3, [r3]
  74:	e3833007 	orr	r3, r3, #7	; 0x7
  78:	e5823000 	str	r3, [r2]
  7c:	e3a03000 	mov	r3, #0	; 0x0
  80:	e50b3010 	str	r3, [fp, #-16]
  84:	e51b2010 	ldr	r2, [fp, #-16]
  88:	e3a03c75 	mov	r3, #29952	; 0x7500
  8c:	e283302f 	add	r3, r3, #47	; 0x2f
  90:	e1520003 	cmp	r2, r3
  94:	ca000003 	bgt	a8 <main+0x90>
  98:	e51b3010 	ldr	r3, [fp, #-16]
  9c:	e2833001 	add	r3, r3, #1	; 0x1
  a0:	e50b3010 	str	r3, [fp, #-16]
  a4:	eafffff6 	b	84 <main+0x6c>
  a8:	e3a02456 	mov	r2, #1442840576	; 0x56000000
  ac:	e2822054 	add	r2, r2, #84	; 0x54
  b0:	e3a03456 	mov	r3, #1442840576	; 0x56000000
  b4:	e2833054 	add	r3, r3, #84	; 0x54
  b8:	e5933000 	ldr	r3, [r3]
  bc:	e3c330f0 	bic	r3, r3, #240	; 0xf0
  c0:	e5823000 	str	r3, [r2]
  c4:	e3a02456 	mov	r2, #1442840576	; 0x56000000
  c8:	e2822054 	add	r2, r2, #84	; 0x54
  cc:	e3a03456 	mov	r3, #1442840576	; 0x56000000
  d0:	e2833054 	add	r3, r3, #84	; 0x54
  d4:	e5933000 	ldr	r3, [r3]
  d8:	e38330ef 	orr	r3, r3, #239	; 0xef
  dc:	e5823000 	str	r3, [r2]
  e0:	e3a03000 	mov	r3, #0	; 0x0
  e4:	e50b3010 	str	r3, [fp, #-16]
  e8:	e51b2010 	ldr	r2, [fp, #-16]
  ec:	e3a03c75 	mov	r3, #29952	; 0x7500
  f0:	e283302f 	add	r3, r3, #47	; 0x2f
  f4:	e1520003 	cmp	r2, r3
  f8:	ca000003 	bgt	10c <main+0xf4>
  fc:	e51b3010 	ldr	r3, [fp, #-16]
 100:	e2833001 	add	r3, r3, #1	; 0x1
 104:	e50b3010 	str	r3, [fp, #-16]
 108:	eafffff6 	b	e8 <main+0xd0>
 10c:	e3a02456 	mov	r2, #1442840576	; 0x56000000
 110:	e2822054 	add	r2, r2, #84	; 0x54
 114:	e3a03456 	mov	r3, #1442840576	; 0x56000000
 118:	e2833054 	add	r3, r3, #84	; 0x54
 11c:	e5933000 	ldr	r3, [r3]
 120:	e3c330f0 	bic	r3, r3, #240	; 0xf0
 124:	e5823000 	str	r3, [r2]
 128:	e3a02456 	mov	r2, #1442840576	; 0x56000000
 12c:	e2822054 	add	r2, r2, #84	; 0x54
 130:	e3a03456 	mov	r3, #1442840576	; 0x56000000
 134:	e2833054 	add	r3, r3, #84	; 0x54
 138:	e5933000 	ldr	r3, [r3]
 13c:	e38330df 	orr	r3, r3, #223	; 0xdf
 140:	e5823000 	str	r3, [r2]
 144:	e3a03000 	mov	r3, #0	; 0x0
 148:	e50b3010 	str	r3, [fp, #-16]
 14c:	e51b2010 	ldr	r2, [fp, #-16]
 150:	e3a03c75 	mov	r3, #29952	; 0x7500
 154:	e283302f 	add	r3, r3, #47	; 0x2f
 158:	e1520003 	cmp	r2, r3
 15c:	ca000003 	bgt	170 <main+0x158>
 160:	e51b3010 	ldr	r3, [fp, #-16]
 164:	e2833001 	add	r3, r3, #1	; 0x1
 168:	e50b3010 	str	r3, [fp, #-16]
 16c:	eafffff6 	b	14c <main+0x134>
 170:	e3a02456 	mov	r2, #1442840576	; 0x56000000
 174:	e2822054 	add	r2, r2, #84	; 0x54
 178:	e3a03456 	mov	r3, #1442840576	; 0x56000000
 17c:	e2833054 	add	r3, r3, #84	; 0x54
 180:	e5933000 	ldr	r3, [r3]
 184:	e3c330f0 	bic	r3, r3, #240	; 0xf0
 188:	e5823000 	str	r3, [r2]
 18c:	e3a02456 	mov	r2, #1442840576	; 0x56000000
 190:	e2822054 	add	r2, r2, #84	; 0x54
 194:	e3a03456 	mov	r3, #1442840576	; 0x56000000
 198:	e2833054 	add	r3, r3, #84	; 0x54
 19c:	e5933000 	ldr	r3, [r3]
 1a0:	e38330bf 	orr	r3, r3, #191	; 0xbf
 1a4:	e5823000 	str	r3, [r2]
 1a8:	e3a03000 	mov	r3, #0	; 0x0
 1ac:	e50b3010 	str	r3, [fp, #-16]
 1b0:	e51b2010 	ldr	r2, [fp, #-16]
 1b4:	e3a03c75 	mov	r3, #29952	; 0x7500
 1b8:	e283302f 	add	r3, r3, #47	; 0x2f
 1bc:	e1520003 	cmp	r2, r3
 1c0:	caffffa1 	bgt	4c <main+0x34>
 1c4:	e51b3010 	ldr	r3, [fp, #-16]
 1c8:	e2833001 	add	r3, r3, #1	; 0x1
 1cc:	e50b3010 	str	r3, [fp, #-16]
 1d0:	eafffff6 	b	1b0 <main+0x198>